(dp0
V
p1
V&#160;Gibraltar
p2
sVItaly
p3
VFreedom of movement(EU conditions apply)
p4
sVCzech Republic
p5
VFreedom of movement(EU conditions apply)
p6
sVLithuania
p7
VFreedom of movement(EU conditions apply)
p8
sVLuxembourg
p9
VFreedom of movement(EU conditions apply)
p10
sVFrance
p11
VFreedom of movement(EU conditions apply)
p12
sVSlovakia
p13
VFreedom of movement(EU conditions apply)
p14
sVIreland
p15
VFreedom of movement(EU conditions apply)
p16
sVSlovenia
p17
VFreedom of movement(EU conditions apply)
p18
sVGermany
p19
VFreedom of movement(EU conditions apply)
p20
sVBelgium
p21
VFreedom of movement(EU conditions apply)
p22
sVSpain
p23
VFreedom of movement(EU conditions apply)
p24
sVNetherlands
p25
VFreedom of movement(EU conditions apply)
p26
sVDenmark
p27
VFreedom of movement(EU conditions apply)
p28
sVPoland
p29
VFreedom of movement(EU conditions apply)
p30
sVFinland
p31
VFreedom of movement(EU conditions apply)
p32
sVSweden
p33
VFreedom of movement(EU conditions apply)
p34
sVLatvia
p35
VFreedom of movement(EU conditions apply)
p36
sVCroatia
p37
VFreedom of movement(EU conditions apply)
p38
sVMalta
p39
VFreedom of movement(EU conditions apply)
p40
sVBulgaria
p41
VFreedom of movement(EU conditions apply)
p42
sVRomania
p43
Vright of abodeminimal checkings at the borders withBulgariaandHungary
p44
sVPortugal
p45
VFreedom of movement(EU conditions apply)
p46
sVEstonia
p47
VFreedom of movement(EU conditions apply)
p48
sVUnited Kingdom
p49
VFreedom of movement(EU conditions apply)
p50
sVAustria
p51
VFreedom of movement(EU conditions apply)
p52
sVGreece
p53
VFreedom of movement(EU conditions apply)
p54
sVHungary
p55
VFreedom of movement(EU conditions apply)
p56
sVCyprus
p57
VFreedom of movement(EU conditions apply)
p58
s.